target datalayout = "e-m:e-p270:32:32-p271:32:32-p272:64:64-i64:64-i128:128-f80:128-n8:16:32:64-S128"
target triple = "x86_64-pc-linux-gnu"

%struct._connParams = type { ptr, ptr, ptr, ptr, i32, ptr }
%struct._restoreOptions = type { i32, i32, i32, i32, i32, i32, ptr, ptr, i32, i32, i32, i32, i32, i32, i32, i32, i32, i32, ptr, i32, i32, i32, ptr, i32, i32, ptr, i32, ptr, i32, i32, i32, i32, i32, %struct.SimpleStringList, %struct.SimpleStringList, %struct.SimpleStringList, %struct.SimpleStringList, %struct.SimpleStringList, %struct.SimpleStringList, i32, %struct._connParams, i32, i32, %struct.pg_compress_specification, i32, i8, i32, ptr, i32, i32, i32, i8, i8 }
%struct.SimpleStringList = type { ptr, ptr }
%struct.pg_compress_specification = type { i32, i32, i32, i32, i8, ptr }
%struct._archiveHandle = type { %struct.Archive, i32, ptr, ptr, i64, i64, i32, %struct.sqlparseInfo, i64, i32, ptr, i64, i64, i64, ptr, ptr, ptr, ptr, ptr, ptr, ptr, ptr, ptr, ptr, ptr, ptr, ptr, ptr, ptr, ptr, ptr, ptr, ptr, ptr, ptr, ptr, ptr, ptr, ptr, ptr, ptr, ptr, ptr, ptr, i32, i32, i8, i32, i8, i32, ptr, ptr, ptr, ptr, i32, i32, ptr, ptr, ptr, %struct.pg_compress_specification, i8, i32, i32, ptr, ptr, ptr, ptr, ptr, i32, ptr, i64, i64, i32, i32, i32, i32, ptr, ptr }
%struct.Archive = type { ptr, ptr, i32, ptr, i32, i8, i32, i32, i32, ptr, i32, i8, ptr, ptr, i8, i32, ptr }
%struct.sqlparseInfo = type { i32, i8, ptr }

; Function Attrs: nounwind uwtable
define dso_local ptr @CloneArchive(ptr noundef %0) #0 {
  %2 = alloca ptr, align 8
  %3 = alloca ptr, align 8
  store ptr %0, ptr %2, align 8
  call void @llvm.lifetime.start.p0(i64 8, ptr %3) #11
  %4 = call ptr @pg_malloc(i64 noundef 696)
  store ptr %4, ptr %3, align 8
  %5 = load ptr, ptr %3, align 8
  %6 = load ptr, ptr %2, align 8
  call void @llvm.memcpy.p0.p0.i64(ptr align 8 %5, ptr align 8 %6, i64 696, i1 false)
  %7 = call ptr @pg_malloc(i64 noundef 400)
  %8 = load ptr, ptr %3, align 8
  %9 = getelementptr inbounds nuw %struct._archiveHandle, ptr %8, i32 0, i32 0
  %10 = getelementptr inbounds nuw %struct.Archive, ptr %9, i32 0, i32 1
  store ptr %7, ptr %10, align 8
  %11 = load ptr, ptr %3, align 8
  %12 = getelementptr inbounds nuw %struct._archiveHandle, ptr %11, i32 0, i32 0
  %13 = getelementptr inbounds nuw %struct.Archive, ptr %12, i32 0, i32 1
  %14 = load ptr, ptr %13, align 8
  %15 = load ptr, ptr %2, align 8
  %16 = getelementptr inbounds nuw %struct._archiveHandle, ptr %15, i32 0, i32 0
  %17 = getelementptr inbounds nuw %struct.Archive, ptr %16, i32 0, i32 1
  %18 = load ptr, ptr %17, align 8
  call void @llvm.memcpy.p0.p0.i64(ptr align 8 %14, ptr align 8 %18, i64 400, i1 false)
  %19 = load ptr, ptr %3, align 8
  %20 = getelementptr inbounds nuw %struct._archiveHandle, ptr %19, i32 0, i32 7
  call void @llvm.memset.p0.i64(ptr align 8 %20, i8 0, i64 16, i1 false)
  %21 = load ptr, ptr %3, align 8
  %22 = getelementptr inbounds nuw %struct._archiveHandle, ptr %21, i32 0, i32 42
  store ptr null, ptr %22, align 8
  %23 = load ptr, ptr %3, align 8
  %24 = getelementptr inbounds nuw %struct._archiveHandle, ptr %23, i32 0, i32 43
  store volatile ptr null, ptr %24, align 8
  %25 = load ptr, ptr %3, align 8
  %26 = getelementptr inbounds nuw %struct._archiveHandle, ptr %25, i32 0, i32 64
  store ptr null, ptr %26, align 8
  %27 = load ptr, ptr %3, align 8
  %28 = getelementptr inbounds nuw %struct._archiveHandle, ptr %27, i32 0, i32 65
  store ptr null, ptr %28, align 8
  %29 = load ptr, ptr %3, align 8
  %30 = getelementptr inbounds nuw %struct._archiveHandle, ptr %29, i32 0, i32 67
  store ptr null, ptr %30, align 8
  %31 = load ptr, ptr %3, align 8
  %32 = getelementptr inbounds nuw %struct._archiveHandle, ptr %31, i32 0, i32 66
  store ptr null, ptr %32, align 8
  %33 = load ptr, ptr %3, align 8
  %34 = getelementptr inbounds nuw %struct._archiveHandle, ptr %33, i32 0, i32 40
  %35 = load ptr, ptr %34, align 8
  %36 = icmp ne ptr %35, null
  br i1 %36, label %37, label %44

37:                                               ; preds = %1
  %38 = load ptr, ptr %3, align 8
  %39 = getelementptr inbounds nuw %struct._archiveHandle, ptr %38, i32 0, i32 40
  %40 = load ptr, ptr %39, align 8
  %41 = call ptr @pg_strdup(ptr noundef %40)
  %42 = load ptr, ptr %3, align 8
  %43 = getelementptr inbounds nuw %struct._archiveHandle, ptr %42, i32 0, i32 40
  store ptr %41, ptr %43, align 8
  br label %44

44:                                               ; preds = %37, %1
  %45 = load ptr, ptr %3, align 8
  %46 = getelementptr inbounds nuw %struct._archiveHandle, ptr %45, i32 0, i32 0
  %47 = getelementptr inbounds nuw %struct.Archive, ptr %46, i32 0, i32 15
  store i32 0, ptr %47, align 4
  %48 = load ptr, ptr %3, align 8
  %49 = getelementptr inbounds nuw %struct._archiveHandle, ptr %48, i32 0, i32 69
  store ptr null, ptr %49, align 8
  %50 = load ptr, ptr %3, align 8
  %51 = getelementptr inbounds nuw %struct._archiveHandle, ptr %50, i32 0, i32 0
  %52 = getelementptr inbounds nuw %struct.Archive, ptr %51, i32 0, i32 1
  %53 = load ptr, ptr %52, align 8
  %54 = getelementptr inbounds nuw %struct._restoreOptions, ptr %53, i32 0, i32 46
  store i32 0, ptr %54, align 8
  %55 = load ptr, ptr %3, align 8
  %56 = load ptr, ptr %3, align 8
  %57 = getelementptr inbounds nuw %struct._archiveHandle, ptr %56, i32 0, i32 0
  %58 = getelementptr inbounds nuw %struct.Archive, ptr %57, i32 0, i32 1
  %59 = load ptr, ptr %58, align 8
  %60 = getelementptr inbounds nuw %struct._restoreOptions, ptr %59, i32 0, i32 40
  call void @ConnectDatabase(ptr noundef %55, ptr noundef %60, i1 noundef zeroext true)
  %61 = load ptr, ptr %2, align 8
  %62 = getelementptr inbounds nuw %struct._archiveHandle, ptr %61, i32 0, i32 62
  %63 = load i32, ptr %62, align 8
  %64 = icmp eq i32 %63, 2
  br i1 %64, label %65, label %67

65:                                               ; preds = %44
  %66 = load ptr, ptr %3, align 8
  call void @_doSetFixedOutputState(ptr noundef %66)
  br label %67

67:                                               ; preds = %65, %44
  %68 = load ptr, ptr %3, align 8
  %69 = getelementptr inbounds nuw %struct._archiveHandle, ptr %68, i32 0, i32 36
  %70 = load ptr, ptr %69, align 8
  %71 = load ptr, ptr %3, align 8
  call void %70(ptr noundef %71)
  %72 = load ptr, ptr %3, align 8
  call void @llvm.lifetime.end.p0(i64 8, ptr %3) #11
  ret ptr %72
}