; Function Attrs: nounwind uwtable
define dso_local noundef ptr @CloneArchive(ptr noundef readonly captures(none) %0) local_unnamed_addr #0 {
  %2 = tail call ptr @pg_malloc(i64 noundef 696) #22
  tail call void @llvm.memcpy.p0.p0.i64(ptr noundef nonnull align 8 dereferenceable(696) %2, ptr noundef nonnull align 8 dereferenceable(696) %0, i64 696, i1 false)
  %3 = tail call ptr @pg_malloc(i64 noundef 400) #22
  %4 = getelementptr inbounds nuw i8, ptr %2, i64 8
  store ptr %3, ptr %4, align 8
  %5 = getelementptr inbounds nuw i8, ptr %0, i64 8
  %6 = load ptr, ptr %5, align 8
  tail call void @llvm.memcpy.p0.p0.i64(ptr noundef nonnull align 8 dereferenceable(400) %3, ptr noundef nonnull align 8 dereferenceable(400) %6, i64 400, i1 false)
  %7 = getelementptr inbounds nuw i8, ptr %2, i64 152
  tail call void @llvm.memset.p0.i64(ptr noundef nonnull align 8 dereferenceable(16) %7, i8 0, i64 16, i1 false)
  %8 = getelementptr inbounds nuw i8, ptr %2, i64 440
  store ptr null, ptr %8, align 8
  %9 = getelementptr inbounds nuw i8, ptr %2, i64 448
  store volatile ptr null, ptr %9, align 8
  %10 = getelementptr inbounds nuw i8, ptr %2, i64 600
  %11 = getelementptr inbounds nuw i8, ptr %2, i64 424
  tail call void @llvm.memset.p0.i64(ptr noundef nonnull align 8 dereferenceable(32) %10, i8 0, i64 32, i1 false)
  %12 = load ptr, ptr %11, align 8
  %.not = icmp eq ptr %12, null
  br i1 %.not, label %15, label %13

13:                                               ; preds = %1
  %14 = tail call ptr @pg_strdup(ptr noundef nonnull %12) #22
  store ptr %14, ptr %11, align 8
  br label %15

15:                                               ; preds = %13, %1
  %16 = getelementptr inbounds nuw i8, ptr %2, i64 92
  store i32 0, ptr %16, align 4
  %17 = getelementptr inbounds nuw i8, ptr %2, i64 640
  store ptr null, ptr %17, align 8
  %18 = load ptr, ptr %4, align 8
  %19 = getelementptr inbounds nuw i8, ptr %18, i64 368
  store i32 0, ptr %19, align 8
  %20 = load ptr, ptr %4, align 8
  %21 = getelementptr inbounds nuw i8, ptr %20, i64 272
  tail call void @ConnectDatabase(ptr noundef nonnull %2, ptr noundef nonnull %21, i1 noundef zeroext true) #22
  %22 = getelementptr inbounds nuw i8, ptr %0, i64 584
  %23 = load i32, ptr %22, align 8
  %24 = icmp eq i32 %23, 2
  br i1 %24, label %25, label %26

25:                                               ; preds = %15
  tail call fastcc void @_doSetFixedOutputState(ptr noundef nonnull %2)
  br label %26

26:                                               ; preds = %25, %15
  %27 = getelementptr inbounds nuw i8, ptr %2, i64 392
  %28 = load ptr, ptr %27, align 8
  tail call void %28(ptr noundef nonnull %2) #22
  ret ptr %2
}